; Function Attrs: nounwind sspstrong uwtable
define hidden i32 @rb_call_proc__fork() local_unnamed_addr #1 {
  %.pr.i = load i64, ptr @rb_call_proc__fork.rbimpl_id, align 8, !tbaa !43
  %.not1.i = icmp eq i64 %.pr.i, 0
  br i1 %.not1.i, label %.lr.ph.i, label %rbimpl_intern_const.exit

.lr.ph.i:                                         ; preds = %0, %.lr.ph.i
  %1 = tail call i64 @rb_intern2(ptr noundef nonnull @.str.17, i64 noundef 5) #27
  store i64 %1, ptr @rb_call_proc__fork.rbimpl_id, align 8, !tbaa !43
  %.not.i = icmp eq i64 %1, 0
  br i1 %.not.i, label %.lr.ph.i, label %rbimpl_intern_const.exit, !llvm.loop !201

rbimpl_intern_const.exit:                         ; preds = %.lr.ph.i, %0
  %.lcssa.i = phi i64 [ %.pr.i, %0 ], [ %1, %.lr.ph.i ]
  %2 = load i64, ptr @rb_mProcess, align 8, !tbaa !43
  %3 = icmp eq i64 %2, 0
  %4 = and i64 %2, 7
  %5 = icmp ne i64 %4, 0
  %6 = or i1 %3, %5
  br i1 %6, label %10, label %7

7:                                                ; preds = %rbimpl_intern_const.exit
  %8 = inttoptr i64 %2 to ptr
  %9 = getelementptr inbounds nuw i8, ptr %8, i64 8
  br label %rb_class_of.exit

10:                                               ; preds = %rbimpl_intern_const.exit
  switch i64 %2, label %13 [
    i64 0, label %rb_class_of.exit
    i64 4, label %11
    i64 20, label %12
  ]

11:                                               ; preds = %10
  br label %rb_class_of.exit

12:                                               ; preds = %10
  br label %rb_class_of.exit

13:                                               ; preds = %10
  %14 = and i64 %2, 1
  %.not.i4 = icmp eq i64 %14, 0
  br i1 %.not.i4, label %15, label %rb_class_of.exit

15:                                               ; preds = %13
  %16 = and i64 %2, 254
  %17 = icmp eq i64 %16, 12
  %spec.select.i = select i1 %17, ptr @rb_cSymbol, ptr @rb_cFloat
  br label %rb_class_of.exit

rb_class_of.exit:                                 ; preds = %7, %10, %11, %12, %13, %15
  %.0.in.i = phi ptr [ @rb_cNilClass, %11 ], [ @rb_cTrueClass, %12 ], [ %9, %7 ], [ @rb_cFalseClass, %10 ], [ @rb_cInteger, %13 ], [ %spec.select.i, %15 ]
  %.0.i = load i64, ptr %.0.in.i, align 8, !tbaa !43
  %18 = tail call i32 @rb_method_basic_definition_p(i64 noundef %.0.i, i64 noundef %.lcssa.i) #27
  %.not = icmp eq i32 %18, 0
  br i1 %.not, label %25, label %19

19:                                               ; preds = %rb_class_of.exit
  %20 = tail call i32 @rb_fork_ruby(ptr noundef null)
  %21 = icmp eq i32 %20, -1
  br i1 %21, label %22, label %proc_fork_pid.exit

22:                                               ; preds = %19
  %23 = tail call ptr @rb_errno_ptr() #27
  %24 = load i32, ptr %23, align 4, !tbaa !60
  tail call void @rb_syserr_fail(i32 noundef %24, ptr noundef nonnull @.str.211) #29
  unreachable

25:                                               ; preds = %rb_class_of.exit
  %26 = load i64, ptr @rb_mProcess, align 8, !tbaa !43
  %27 = tail call i64 (i64, i64, i32, ...) @rb_funcall(i64 noundef %26, i64 noundef %.lcssa.i, i32 noundef 0) #27
  %28 = and i64 %27, 1
  %.not.i5 = icmp eq i64 %28, 0
  br i1 %.not.i5, label %31, label %29

29:                                               ; preds = %25
  %30 = tail call i64 @rb_fix2int(i64 noundef %27) #27
  br label %rb_num2int_inline.exit

31:                                               ; preds = %25
  %32 = tail call i64 @rb_num2int(i64 noundef %27) #27
  br label %rb_num2int_inline.exit

rb_num2int_inline.exit:                           ; preds = %29, %31
  %.0.i6 = phi i64 [ %30, %29 ], [ %32, %31 ]
  %33 = trunc i64 %.0.i6 to i32
  br label %proc_fork_pid.exit

proc_fork_pid.exit:                               ; preds = %19, %rb_num2int_inline.exit
  %.0 = phi i32 [ %33, %rb_num2int_inline.exit ], [ %20, %19 ]
  ret i32 %.0
}